; Function Attrs: mustprogress uwtable
define hidden void @_ZN14duckdb_mbedtls14MbedTlsWrapper9SHA1State9AddStringERKNSt7__cxx1112basic_stringIcSt11char_traitsIcESaIcEEE(ptr noundef nonnull readonly align 8 captures(none) dereferenceable(8) %0, ptr noundef nonnull readonly align 8 captures(none) dereferenceable(32) %1) local_unnamed_addr #0 align 2 personality ptr @__gxx_personality_v0 {
  %3 = load ptr, ptr %0, align 8, !tbaa !20
  %4 = load ptr, ptr %1, align 8, !tbaa !13
  %5 = getelementptr inbounds nuw i8, ptr %1, i64 8
  %6 = load i64, ptr %5, align 8, !tbaa !9
  %7 = tail call i32 @mbedtls_sha1_update(ptr noundef %3, ptr noundef %4, i64 noundef %6)
  %.not = icmp eq i32 %7, 0
  br i1 %.not, label %13, label %8

8:                                                ; preds = %2
  %9 = tail call ptr @__cxa_allocate_exception(i64 16) #19
  invoke void @_ZNSt13runtime_errorC1EPKc(ptr noundef nonnull align 8 dereferenceable(16) %9, ptr noundef nonnull @.str.6)
          to label %10 unwind label %11

10:                                               ; preds = %8
  tail call void @__cxa_throw(ptr nonnull %9, ptr nonnull @_ZTISt13runtime_error, ptr nonnull @_ZNSt13runtime_errorD1Ev) #20
  unreachable

11:                                               ; preds = %8
  %12 = landingpad { ptr, i32 }
          cleanup
  tail call void @__cxa_free_exception(ptr nonnull %9) #19
  resume { ptr, i32 } %12

13:                                               ; preds = %2
  ret void
}